target datalayout = "e-m:e-p270:32:32-p271:32:32-p272:64:64-i64:64-i128:128-f80:128-n8:16:32:64-S128"
target triple = "x86_64-pc-linux-gnu"

%class.G1Policy = type { ptr, %class.G1Predictions, ptr, %class.G1RemSetTrackingPolicy, ptr, %class.G1OldGenAllocationTracker, ptr, ptr, double, i32, i32, i32, ptr, ptr, double, i32, %class.G1YoungGenSizer, i32, i64, i64, %class.G1ConcurrentStartToMixedTimeTracker, ptr, ptr, ptr, ptr, double, double, i32, i32, %class.AgeTable }
%class.G1Predictions = type { double }
%class.G1RemSetTrackingPolicy = type { i8 }
%class.G1OldGenAllocationTracker = type { i64, i64, i64, i64, i64 }
%class.G1YoungGenSizer = type { ptr, i32, i8, i32, i32 }
%class.G1ConcurrentStartToMixedTimeTracker = type { i8, double, double, double }
%class.AgeTable = type { [16 x i64], i8, [16 x ptr] }

@ParallelGCThreads = external global i32, align 4

; Function Attrs: mustprogress nounwind uwtable
define hidden noundef ptr @_ZNK8G1Policy11phase_timesEv(ptr noundef nonnull align 8 dereferenceable(552) %0) #1 align 2 {
  %2 = alloca i64, align 8
  %3 = alloca i8, align 1
  %4 = alloca i64, align 8
  %5 = alloca ptr, align 8
  store ptr %0, ptr %5, align 8
  %6 = load ptr, ptr %5, align 8
  %7 = getelementptr inbounds %class.G1Policy, ptr %6, i32 0, i32 24
  %8 = load ptr, ptr %7, align 8
  %9 = icmp eq ptr %8, null
  br i1 %9, label %10, label %19

10:                                               ; preds = %1
  store i64 872, ptr %4, align 8
  %11 = load i64, ptr %4, align 8
  store i64 %11, ptr %2, align 8
  store i8 5, ptr %3, align 1
  %12 = load i64, ptr %2, align 8
  %13 = load i8, ptr %3, align 1
  %14 = call noundef ptr @_Z12AllocateHeapm8MEMFLAGSN17AllocFailStrategy13AllocFailEnumE(i64 noundef %12, i8 noundef zeroext %13, i32 noundef 0) #10
  %15 = getelementptr inbounds %class.G1Policy, ptr %6, i32 0, i32 23
  %16 = load ptr, ptr %15, align 8
  %17 = load i32, ptr @ParallelGCThreads, align 4
  call void @_ZN14G1GCPhaseTimesC1EP10STWGCTimerj(ptr noundef nonnull align 8 dereferenceable(872) %14, ptr noundef %16, i32 noundef %17)
  %18 = getelementptr inbounds %class.G1Policy, ptr %6, i32 0, i32 24
  store ptr %14, ptr %18, align 8
  br label %19

19:                                               ; preds = %10, %1
  %20 = getelementptr inbounds %class.G1Policy, ptr %6, i32 0, i32 24
  %21 = load ptr, ptr %20, align 8
  ret ptr %21
}