; Function Attrs: mustprogress nounwind uwtable
define hidden noundef ptr @_ZNK8G1Policy11phase_timesEv(ptr nocapture noundef nonnull align 8 dereferenceable(552) %0) local_unnamed_addr #1 align 2 {
  %2 = getelementptr inbounds i8, ptr %0, i64 256
  %3 = load ptr, ptr %2, align 8
  %4 = icmp eq ptr %3, null
  br i1 %4, label %5, label %10

5:                                                ; preds = %1
  %6 = tail call noundef ptr @_Z12AllocateHeapm8MEMFLAGSN17AllocFailStrategy13AllocFailEnumE(i64 noundef 872, i8 noundef zeroext 5, i32 noundef 0) #18
  %7 = getelementptr inbounds i8, ptr %0, i64 248
  %8 = load ptr, ptr %7, align 8
  %9 = load i32, ptr @ParallelGCThreads, align 4
  tail call void @_ZN14G1GCPhaseTimesC1EP10STWGCTimerj(ptr noundef nonnull align 8 dereferenceable(872) %6, ptr noundef %8, i32 noundef %9) #18
  store ptr %6, ptr %2, align 8
  br label %10

10:                                               ; preds = %5, %1
  %11 = phi ptr [ %6, %5 ], [ %3, %1 ]
  ret ptr %11
}